; Function Attrs: mustprogress nounwind uwtable
define hidden void @_ZN15G1CollectedHeap22start_concurrent_cycleEb(ptr nocapture noundef nonnull readonly align 8 dereferenceable(1488) %0, i1 noundef zeroext %1) local_unnamed_addr #0 align 2 {
  %3 = load ptr, ptr @CGC_lock, align 8
  %.not.i.i = icmp eq ptr %3, null
  br i1 %.not.i.i, label %_ZN11MutexLockerC2EP5MutexNS0_18SafepointCheckFlagE.exit, label %4

4:                                                ; preds = %2
  tail call void @_ZN5Mutex28lock_without_safepoint_checkEv(ptr noundef nonnull align 8 dereferenceable(104) %3) #23
  br label %_ZN11MutexLockerC2EP5MutexNS0_18SafepointCheckFlagE.exit

_ZN11MutexLockerC2EP5MutexNS0_18SafepointCheckFlagE.exit: ; preds = %2, %4
  %5 = getelementptr inbounds i8, ptr %0, i64 1320
  %6 = load ptr, ptr %5, align 8
  %7 = getelementptr inbounds i8, ptr %0, i64 1328
  br i1 %1, label %8, label %9

8:                                                ; preds = %_ZN11MutexLockerC2EP5MutexNS0_18SafepointCheckFlagE.exit
  tail call void @_ZN16G1ConcurrentMark26post_concurrent_mark_startEv(ptr noundef nonnull align 8 dereferenceable(1849) %6) #23
  br label %10

9:                                                ; preds = %_ZN11MutexLockerC2EP5MutexNS0_18SafepointCheckFlagE.exit
  tail call void @_ZN16G1ConcurrentMark26post_concurrent_undo_startEv(ptr noundef nonnull align 8 dereferenceable(1849) %6) #23
  br label %10

10:                                               ; preds = %9, %8
  %.sink = phi i32 [ 2, %9 ], [ 1, %8 ]
  %11 = load ptr, ptr %7, align 8
  %12 = getelementptr inbounds i8, ptr %11, i64 944
  store volatile i32 %.sink, ptr %12, align 8
  %13 = load ptr, ptr @CGC_lock, align 8
  tail call void @_ZN7Monitor6notifyEv(ptr noundef nonnull align 8 dereferenceable(104) %13) #23
  br i1 %.not.i.i, label %_ZN11MutexLockerD2Ev.exit, label %14

14:                                               ; preds = %10
  tail call void @_ZN5Mutex6unlockEv(ptr noundef nonnull align 8 dereferenceable(104) %3) #23
  br label %_ZN11MutexLockerD2Ev.exit

_ZN11MutexLockerD2Ev.exit:                        ; preds = %10, %14
  ret void
}